; Listing generated by Microsoft (R) Optimizing Compiler Version 19.16.27031.1 

include listing.inc

INCLUDELIB MSVCRTD
INCLUDELIB OLDNAMES

CONST	SEGMENT
$SG157687 DB	'g:\qt\qt5.9.0\5.9\msvc2017_64\include\qtcore\qmetatype.h'
	DB	00H
	ORG $+7
$SG157688 DB	'qRegisterNormalizedMetaType was called with a not normal'
	DB	'ized type name, please call qRegisterMetaType instead.', 00H
	ORG $+1
$SG157689 DB	'qRegisterNormalizedMetaType', 00H
	ORG $+4
$SG159818 DB	'g:\qt\qt5.9.0\5.9\msvc2017_64\include\qtcore\qmetatype.h'
	DB	00H
	ORG $+7
$SG159819 DB	'qRegisterNormalizedMetaType was called with a not normal'
	DB	'ized type name, please call qRegisterMetaType instead.', 00H
	ORG $+1
$SG159820 DB	'qRegisterNormalizedMetaType', 00H
	ORG $+4
$SG160113 DB	'g:\qt\qt5.9.0\5.9\msvc2017_64\include\qtcore\qmetatype.h'
	DB	00H
	ORG $+7
$SG160114 DB	'qRegisterNormalizedMetaType was called with a not normal'
	DB	'ized type name, please call qRegisterMetaType instead.', 00H
	ORG $+1
$SG160115 DB	'qRegisterNormalizedMetaType', 00H
	ORG $+4
$SG160408 DB	'g:\qt\qt5.9.0\5.9\msvc2017_64\include\qtcore\qmetatype.h'
	DB	00H
	ORG $+7
$SG160409 DB	'qRegisterNormalizedMetaType was called with a not normal'
	DB	'ized type name, please call qRegisterMetaType instead.', 00H
	ORG $+1
$SG160410 DB	'qRegisterNormalizedMetaType', 00H
	ORG $+4
$SG161185 DB	'g:\qt\qt5.9.0\5.9\msvc2017_64\include\qtcore\qmetatype.h'
	DB	00H
	ORG $+7
$SG161186 DB	'qRegisterNormalizedMetaType was called with a not normal'
	DB	'ized type name, please call qRegisterMetaType instead.', 00H
	ORG $+1
$SG161187 DB	'qRegisterNormalizedMetaType', 00H
	ORG $+4
$SG161480 DB	'g:\qt\qt5.9.0\5.9\msvc2017_64\include\qtcore\qmetatype.h'
	DB	00H
	ORG $+7
$SG161481 DB	'qRegisterNormalizedMetaType was called with a not normal'
	DB	'ized type name, please call qRegisterMetaType instead.', 00H
	ORG $+1
$SG161482 DB	'qRegisterNormalizedMetaType', 00H
	ORG $+4
$SG161775 DB	'g:\qt\qt5.9.0\5.9\msvc2017_64\include\qtcore\qmetatype.h'
	DB	00H
	ORG $+7
$SG161776 DB	'qRegisterNormalizedMetaType was called with a not normal'
	DB	'ized type name, please call qRegisterMetaType instead.', 00H
	ORG $+1
$SG161777 DB	'qRegisterNormalizedMetaType', 00H
	ORG $+4
?qt_meta_stringdata_Library@@3Uqt_meta_stringdata_Library_t@@B DD 0ffffffffH ; qt_meta_stringdata_Library
	DD	07H
	DD	00H
	ORG $+4
	DQ	0000000000000060H
	DD	0ffffffffH
	DD	09H
	DD	00H
	ORG $+4
	DQ	0000000000000050H
	DD	0ffffffffH
	DD	00H
	DD	00H
	ORG $+4
	DQ	0000000000000042H
	DD	0ffffffffH
	DD	05H
	DD	00H
	ORG $+4
	DQ	000000000000002bH
	DB	04cH
	DB	069H
	DB	062H
	DB	072H
	DB	061H
	DB	072H
	DB	079H
	DB	00H
	DB	04cH
	DB	06fH
	DB	067H
	DB	069H
	DB	06eH
	DB	053H
	DB	06cH
	DB	06fH
	DB	074H
	DB	00H
	DB	00H
	DB	069H
	DB	06eH
	DB	064H
	DB	065H
	DB	078H
	DB	00H
	ORG $+7
?qt_meta_data_Library@@3QBIB DD 07H			; qt_meta_data_Library
	DD	00H
	DD	00H
	DD	00H
	DD	01H
	DD	0eH
	DD	00H
	DD	00H
	DD	00H
	DD	00H
	DD	00H
	DD	00H
	DD	00H
	DD	00H
	DD	01H
	DD	01H
	DD	013H
	DD	02H
	DD	0aH
	DD	02bH
	DD	02H
	DD	03H
	DD	00H
	ORG $+4
$SG162119 DB	'g:\qt\qt5.9.0\5.9\msvc2017_64\include\qtcore\qmetatype.h'
	DB	00H
	ORG $+7
$SG162120 DB	'qRegisterNormalizedMetaType was called with a not normal'
	DB	'ized type name, please call qRegisterMetaType instead.', 00H
	ORG $+1
$SG162121 DB	'qRegisterNormalizedMetaType', 00H
CONST	ENDS
PUBLIC	?__empty_global_delete@@YAXPEAX@Z		; __empty_global_delete
PUBLIC	?__empty_global_delete@@YAXPEAX_K@Z		; __empty_global_delete
PUBLIC	??C?$QScopedPointer@VQObjectData@@U?$QScopedPointerDeleter@VQObjectData@@@@@@QEBAPEAVQObjectData@@XZ ; QScopedPointer<QObjectData,QScopedPointerDeleter<QObjectData> >::operator->
PUBLIC	?metaObject@Library@@UEBAPEBUQMetaObject@@XZ	; Library::metaObject
PUBLIC	?qt_metacast@Library@@UEAAPEAXPEBD@Z		; Library::qt_metacast
PUBLIC	?qt_metacall@Library@@UEAAHW4Call@QMetaObject@@HPEAPEAX@Z ; Library::qt_metacall
PUBLIC	?qt_static_metacall@Library@@CAXPEAVQObject@@W4Call@QMetaObject@@HPEAPEAX@Z ; Library::qt_static_metacall
PUBLIC	?staticMetaObject@Library@@2UQMetaObject@@B	; Library::staticMetaObject
EXTRN	strcmp:PROC
EXTRN	__imp_?dynamicMetaObject@QObjectData@@QEBAPEAUQMetaObject@@XZ:PROC
EXTRN	__imp_?qt_metacast@QMainWindow@@UEAAPEAXPEBD@Z:PROC
EXTRN	__imp_?qt_metacall@QMainWindow@@UEAAHW4Call@QMetaObject@@HPEAPEAX@Z:PROC
EXTRN	?LoginSlot@Library@@QEAAXH@Z:PROC		; Library::LoginSlot
EXTRN	__imp_?staticMetaObject@QMainWindow@@2UQMetaObject@@B:BYTE
_BSS	SEGMENT
?staticMetaObject@Library@@2UQMetaObject@@B DB 030H DUP (?) ; Library::staticMetaObject
_BSS	ENDS
pdata	SEGMENT
$pdata$?metaObject@Library@@UEBAPEBUQMetaObject@@XZ DD imagerel $LN5
	DD	imagerel $LN5+88
	DD	imagerel $unwind$?metaObject@Library@@UEBAPEBUQMetaObject@@XZ
$pdata$?qt_metacast@Library@@UEAAPEAXPEBD@Z DD imagerel $LN5
	DD	imagerel $LN5+75
	DD	imagerel $unwind$?qt_metacast@Library@@UEAAPEAXPEBD@Z
$pdata$?qt_metacall@Library@@UEAAHW4Call@QMetaObject@@HPEAPEAX@Z DD imagerel $LN9
	DD	imagerel $LN9+172
	DD	imagerel $unwind$?qt_metacall@Library@@UEAAHW4Call@QMetaObject@@HPEAPEAX@Z
$pdata$?qt_static_metacall@Library@@CAXPEAVQObject@@W4Call@QMetaObject@@HPEAPEAX@Z DD imagerel $LN8
	DD	imagerel $LN8+92
	DD	imagerel $unwind$?qt_static_metacall@Library@@CAXPEAVQObject@@W4Call@QMetaObject@@HPEAPEAX@Z
pdata	ENDS
CRT$XCU	SEGMENT
??staticMetaObject$initializer$@Library@@2P6AXXZEA@@3P6AXXZEA DQ FLAT:??__E?staticMetaObject@Library@@2UQMetaObject@@B@@YAXXZ ; ??staticMetaObject$initializer$@Library@@2P6AXXZEA@@3P6AXXZEA
CRT$XCU	ENDS
xdata	SEGMENT
$unwind$?metaObject@Library@@UEBAPEBUQMetaObject@@XZ DD 010901H
	DD	06209H
$unwind$?qt_metacast@Library@@UEAAPEAXPEBD@Z DD 010e01H
	DD	0420eH
$unwind$?qt_metacall@Library@@UEAAHW4Call@QMetaObject@@HPEAPEAX@Z DD 011701H
	DD	04217H
$unwind$?qt_static_metacall@Library@@CAXPEAVQObject@@W4Call@QMetaObject@@HPEAPEAX@Z DD 011701H
	DD	06217H
xdata	ENDS
; Function compile flags: /Odtp
;	COMDAT ??__E?staticMetaObject@Library@@2UQMetaObject@@B@@YAXXZ
text$di	SEGMENT
??__E?staticMetaObject@Library@@2UQMetaObject@@B@@YAXXZ PROC ; `dynamic initializer for 'Library::staticMetaObject'', COMDAT
; File f:\cloud\librarysystem\library\library\x64\debug\moc\moc_library.cpp
; Line 79
	mov	rax, QWORD PTR __imp_?staticMetaObject@QMainWindow@@2UQMetaObject@@B
	mov	QWORD PTR ?staticMetaObject@Library@@2UQMetaObject@@B, rax
	lea	rax, OFFSET FLAT:?qt_meta_stringdata_Library@@3Uqt_meta_stringdata_Library_t@@B
	mov	QWORD PTR ?staticMetaObject@Library@@2UQMetaObject@@B+8, rax
; Line 80
	lea	rax, OFFSET FLAT:?qt_meta_data_Library@@3QBIB
	mov	QWORD PTR ?staticMetaObject@Library@@2UQMetaObject@@B+16, rax
	lea	rax, OFFSET FLAT:?qt_static_metacall@Library@@CAXPEAVQObject@@W4Call@QMetaObject@@HPEAPEAX@Z ; Library::qt_static_metacall
	mov	QWORD PTR ?staticMetaObject@Library@@2UQMetaObject@@B+24, rax
	mov	QWORD PTR ?staticMetaObject@Library@@2UQMetaObject@@B+32, 0
	mov	QWORD PTR ?staticMetaObject@Library@@2UQMetaObject@@B+40, 0
	ret	0
??__E?staticMetaObject@Library@@2UQMetaObject@@B@@YAXXZ ENDP ; `dynamic initializer for 'Library::staticMetaObject''
text$di	ENDS
; Function compile flags: /Odtp
_TEXT	SEGMENT
tv69 = 32
_t$1 = 40
_o$ = 64
_c$ = 72
_id$ = 80
_a$ = 88
?qt_static_metacall@Library@@CAXPEAVQObject@@W4Call@QMetaObject@@HPEAPEAX@Z PROC ; Library::qt_static_metacall
; File f:\cloud\librarysystem\library\library\x64\debug\moc\moc_library.cpp
; Line 67
$LN8:
	mov	QWORD PTR [rsp+32], r9
	mov	DWORD PTR [rsp+24], r8d
	mov	DWORD PTR [rsp+16], edx
	mov	QWORD PTR [rsp+8], rcx
	sub	rsp, 56					; 00000038H
; Line 68
	cmp	DWORD PTR _c$[rsp], 0
	jne	SHORT $LN4@qt_static_
; Line 69
	mov	rax, QWORD PTR _o$[rsp]
	mov	QWORD PTR _t$1[rsp], rax
; Line 71
	mov	eax, DWORD PTR _id$[rsp]
	mov	DWORD PTR tv69[rsp], eax
	cmp	DWORD PTR tv69[rsp], 0
	je	SHORT $LN5@qt_static_
	jmp	SHORT $LN6@qt_static_
$LN5@qt_static_:
; Line 72
	mov	eax, 8
	imul	rax, rax, 1
	mov	rcx, QWORD PTR _a$[rsp]
	mov	rax, QWORD PTR [rcx+rax]
	mov	edx, DWORD PTR [rax]
	mov	rcx, QWORD PTR _t$1[rsp]
	call	?LoginSlot@Library@@QEAAXH@Z		; Library::LoginSlot
$LN6@qt_static_:
$LN4@qt_static_:
; Line 76
	add	rsp, 56					; 00000038H
	ret	0
?qt_static_metacall@Library@@CAXPEAVQObject@@W4Call@QMetaObject@@HPEAPEAX@Z ENDP ; Library::qt_static_metacall
_TEXT	ENDS
; Function compile flags: /Odtp
_TEXT	SEGMENT
this$ = 48
_c$ = 56
_id$ = 64
_a$ = 72
?qt_metacall@Library@@UEAAHW4Call@QMetaObject@@HPEAPEAX@Z PROC ; Library::qt_metacall
; File f:\cloud\librarysystem\library\library\x64\debug\moc\moc_library.cpp
; Line 98
$LN9:
	mov	QWORD PTR [rsp+32], r9
	mov	DWORD PTR [rsp+24], r8d
	mov	DWORD PTR [rsp+16], edx
	mov	QWORD PTR [rsp+8], rcx
	sub	rsp, 40					; 00000028H
; Line 99
	mov	r9, QWORD PTR _a$[rsp]
	mov	r8d, DWORD PTR _id$[rsp]
	mov	edx, DWORD PTR _c$[rsp]
	mov	rcx, QWORD PTR this$[rsp]
	call	QWORD PTR __imp_?qt_metacall@QMainWindow@@UEAAHW4Call@QMetaObject@@HPEAPEAX@Z
	mov	DWORD PTR _id$[rsp], eax
; Line 100
	cmp	DWORD PTR _id$[rsp], 0
	jge	SHORT $LN2@qt_metacal
; Line 101
	mov	eax, DWORD PTR _id$[rsp]
	jmp	SHORT $LN1@qt_metacal
$LN2@qt_metacal:
; Line 102
	cmp	DWORD PTR _c$[rsp], 0
	jne	SHORT $LN3@qt_metacal
; Line 103
	cmp	DWORD PTR _id$[rsp], 1
	jge	SHORT $LN5@qt_metacal
; Line 104
	mov	r9, QWORD PTR _a$[rsp]
	mov	r8d, DWORD PTR _id$[rsp]
	mov	edx, DWORD PTR _c$[rsp]
	mov	rcx, QWORD PTR this$[rsp]
	call	?qt_static_metacall@Library@@CAXPEAVQObject@@W4Call@QMetaObject@@HPEAPEAX@Z ; Library::qt_static_metacall
$LN5@qt_metacal:
; Line 105
	mov	eax, DWORD PTR _id$[rsp]
	dec	eax
	mov	DWORD PTR _id$[rsp], eax
	jmp	SHORT $LN4@qt_metacal
$LN3@qt_metacal:
; Line 106
	cmp	DWORD PTR _c$[rsp], 12
	jne	SHORT $LN6@qt_metacal
; Line 107
	cmp	DWORD PTR _id$[rsp], 1
	jge	SHORT $LN7@qt_metacal
; Line 108
	mov	eax, 8
	imul	rax, rax, 0
	mov	rcx, QWORD PTR _a$[rsp]
	mov	rax, QWORD PTR [rcx+rax]
	mov	DWORD PTR [rax], -1
$LN7@qt_metacal:
; Line 109
	mov	eax, DWORD PTR _id$[rsp]
	dec	eax
	mov	DWORD PTR _id$[rsp], eax
$LN6@qt_metacal:
$LN4@qt_metacal:
; Line 111
	mov	eax, DWORD PTR _id$[rsp]
$LN1@qt_metacal:
; Line 112
	add	rsp, 40					; 00000028H
	ret	0
?qt_metacall@Library@@UEAAHW4Call@QMetaObject@@HPEAPEAX@Z ENDP ; Library::qt_metacall
_TEXT	ENDS
; Function compile flags: /Odtp
_TEXT	SEGMENT
this$ = 48
_clname$ = 56
?qt_metacast@Library@@UEAAPEAXPEBD@Z PROC		; Library::qt_metacast
; File f:\cloud\librarysystem\library\library\x64\debug\moc\moc_library.cpp
; Line 90
$LN5:
	mov	QWORD PTR [rsp+16], rdx
	mov	QWORD PTR [rsp+8], rcx
	sub	rsp, 40					; 00000028H
; Line 91
	cmp	QWORD PTR _clname$[rsp], 0
	jne	SHORT $LN2@qt_metacas
	xor	eax, eax
	jmp	SHORT $LN1@qt_metacas
$LN2@qt_metacas:
; Line 92
	lea	rdx, OFFSET FLAT:?qt_meta_stringdata_Library@@3Uqt_meta_stringdata_Library_t@@B+96
	mov	rcx, QWORD PTR _clname$[rsp]
	call	strcmp
	test	eax, eax
	jne	SHORT $LN3@qt_metacas
; Line 93
	mov	rax, QWORD PTR this$[rsp]
	jmp	SHORT $LN1@qt_metacas
$LN3@qt_metacas:
; Line 94
	mov	rdx, QWORD PTR _clname$[rsp]
	mov	rcx, QWORD PTR this$[rsp]
	call	QWORD PTR __imp_?qt_metacast@QMainWindow@@UEAAPEAXPEBD@Z
$LN1@qt_metacas:
; Line 95
	add	rsp, 40					; 00000028H
	ret	0
?qt_metacast@Library@@UEAAPEAXPEBD@Z ENDP		; Library::qt_metacast
_TEXT	ENDS
; Function compile flags: /Odtp
_TEXT	SEGMENT
tv82 = 32
this$ = 64
?metaObject@Library@@UEBAPEBUQMetaObject@@XZ PROC	; Library::metaObject
; File f:\cloud\librarysystem\library\library\x64\debug\moc\moc_library.cpp
; Line 85
$LN5:
	mov	QWORD PTR [rsp+8], rcx
	sub	rsp, 56					; 00000038H
; Line 86
	mov	rax, QWORD PTR this$[rsp]
	add	rax, 8
	mov	rcx, rax
	call	??C?$QScopedPointer@VQObjectData@@U?$QScopedPointerDeleter@VQObjectData@@@@@@QEBAPEAVQObjectData@@XZ ; QScopedPointer<QObjectData,QScopedPointerDeleter<QObjectData> >::operator->
	cmp	QWORD PTR [rax+40], 0
	je	SHORT $LN3@metaObject
	mov	rax, QWORD PTR this$[rsp]
	add	rax, 8
	mov	rcx, rax
	call	??C?$QScopedPointer@VQObjectData@@U?$QScopedPointerDeleter@VQObjectData@@@@@@QEBAPEAVQObjectData@@XZ ; QScopedPointer<QObjectData,QScopedPointerDeleter<QObjectData> >::operator->
	mov	rcx, rax
	call	QWORD PTR __imp_?dynamicMetaObject@QObjectData@@QEBAPEAUQMetaObject@@XZ
	mov	QWORD PTR tv82[rsp], rax
	jmp	SHORT $LN4@metaObject
$LN3@metaObject:
	lea	rax, OFFSET FLAT:?staticMetaObject@Library@@2UQMetaObject@@B ; Library::staticMetaObject
	mov	QWORD PTR tv82[rsp], rax
$LN4@metaObject:
	mov	rax, QWORD PTR tv82[rsp]
; Line 87
	add	rsp, 56					; 00000038H
	ret	0
?metaObject@Library@@UEBAPEBUQMetaObject@@XZ ENDP	; Library::metaObject
_TEXT	ENDS
; Function compile flags: /Odtp
;	COMDAT ??C?$QScopedPointer@VQObjectData@@U?$QScopedPointerDeleter@VQObjectData@@@@@@QEBAPEAVQObjectData@@XZ
_TEXT	SEGMENT
this$ = 8
??C?$QScopedPointer@VQObjectData@@U?$QScopedPointerDeleter@VQObjectData@@@@@@QEBAPEAVQObjectData@@XZ PROC ; QScopedPointer<QObjectData,QScopedPointerDeleter<QObjectData> >::operator->, COMDAT
; File g:\qt\qt5.9.0\5.9\msvc2017_64\include\qtcore\qscopedpointer.h
; Line 117
	mov	QWORD PTR [rsp+8], rcx
; Line 118
	mov	rax, QWORD PTR this$[rsp]
	mov	rax, QWORD PTR [rax]
; Line 119
	ret	0
??C?$QScopedPointer@VQObjectData@@U?$QScopedPointerDeleter@VQObjectData@@@@@@QEBAPEAVQObjectData@@XZ ENDP ; QScopedPointer<QObjectData,QScopedPointerDeleter<QObjectData> >::operator->
_TEXT	ENDS
; Function compile flags: /Odtp
;	COMDAT ?__empty_global_delete@@YAXPEAX_K@Z
_TEXT	SEGMENT
__formal$ = 8
__formal$ = 16
?__empty_global_delete@@YAXPEAX_K@Z PROC		; __empty_global_delete, COMDAT
; File f:\cloud\librarysystem\library\library\x64\debug\moc\moc_library.cpp
; Line 115
	mov	QWORD PTR [rsp+16], rdx
	mov	QWORD PTR [rsp+8], rcx
	ret	0
?__empty_global_delete@@YAXPEAX_K@Z ENDP		; __empty_global_delete
_TEXT	ENDS
; Function compile flags: /Odtp
;	COMDAT ?__empty_global_delete@@YAXPEAX@Z
_TEXT	SEGMENT
__formal$ = 8
?__empty_global_delete@@YAXPEAX@Z PROC			; __empty_global_delete, COMDAT
; File f:\cloud\librarysystem\library\library\x64\debug\moc\moc_library.cpp
; Line 115
	mov	QWORD PTR [rsp+8], rcx
	ret	0
?__empty_global_delete@@YAXPEAX@Z ENDP			; __empty_global_delete
_TEXT	ENDS
END
